(lp0
ccopy_reg
_reconstructor
p1
(cclasses
Etudiant
p2
c__builtin__
object
p3
Ntp4
Rp5
(dp6
S'Nom'
p7
S'aamer'
p8
sS'_sa_instance_state'
p9
g1
(csqlalchemy.orm.state
InstanceState
p10
g3
Ntp11
Rp12
(dp13
S'class_'
p14
g2
sS'committed_state'
p15
(dp16
sS'instance'
p17
g5
sS'manager'
p18
g1
(csqlalchemy.orm.instrumentation
_SerializeManager
p19
g3
Ntp20
Rp21
(dp22
S'class_'
p23
g2
sbsS'key'
p24
(g2
(L383L
tp25
tp26
sS'expired_attributes'
p27
c__builtin__
set
p28
((lp29
tp30
Rp31
sbsS'Prenom'
p32
S'youssef'
p33
sS'filier'
p34
g1
(cclasses
Filiere
p35
g3
Ntp36
Rp37
(dp38
g7
S'bd2c'
p39
sg9
g1
(g10
g3
Ntp40
Rp41
(dp42
g14
g35
sg15
(dp43
sg17
g37
sg18
g1
(g19
g3
Ntp44
Rp45
(dp46
g23
g35
sbsg24
(g35
(L1L
tp47
tp48
sg27
g28
((lp49
tp50
Rp51
sbsS'modules'
p52
g1
(csqlalchemy.orm.collections
InstrumentedList
p53
c__builtin__
list
p54
(lp55
g1
(cclasses
Module
p56
g3
Ntp57
Rp58
(dp59
g7
S'Anglais'
p60
sg9
g1
(g10
g3
Ntp61
Rp62
(dp63
g14
g56
sg15
(dp64
sg17
g58
sg18
g1
(g19
g3
Ntp65
Rp66
(dp67
g23
g56
sbsg24
(g56
(L1L
tp68
tp69
sg27
g28
((lp70
tp71
Rp72
sbsS'ID'
p73
L1L
sbag1
(g56
g3
Ntp74
Rp75
(dp76
g7
S'Web Semantique'
p77
sg9
g1
(g10
g3
Ntp78
Rp79
(dp80
g14
g56
sg15
(dp81
sg17
g75
sg18
g1
(g19
g3
Ntp82
Rp83
(dp84
g23
g56
sbsg24
(g56
(L2L
tp85
tp86
sg27
g28
((lp87
tp88
Rp89
sbsg73
L2L
sbag1
(g56
g3
Ntp90
Rp91
(dp92
g7
S'Bases de Donnees Avancees'
p93
sg9
g1
(g10
g3
Ntp94
Rp95
(dp96
g14
g56
sg15
(dp97
sg17
g91
sg18
g1
(g19
g3
Ntp98
Rp99
(dp100
g23
g56
sbsg24
(g56
(L3L
tp101
tp102
sg27
g28
((lp103
tp104
Rp105
sbsg73
L3L
sbag1
(g56
g3
Ntp106
Rp107
(dp108
g7
S'Intelligence Artificielle'
p109
sg9
g1
(g10
g3
Ntp110
Rp111
(dp112
g14
g56
sg15
(dp113
sg17
g107
sg18
g1
(g19
g3
Ntp114
Rp115
(dp116
g23
g56
sbsg24
(g56
(L4L
tp117
tp118
sg27
g28
((lp119
tp120
Rp121
sbsg73
L4L
sbag1
(g56
g3
Ntp122
Rp123
(dp124
g7
S'Statistique Inferencielle'
p125
sg9
g1
(g10
g3
Ntp126
Rp127
(dp128
g14
g56
sg15
(dp129
sg17
g123
sg18
g1
(g19
g3
Ntp130
Rp131
(dp132
g23
g56
sbsg24
(g56
(L5L
tp133
tp134
sg27
g28
((lp135
tp136
Rp137
sbsg73
L5L
sbag1
(g56
g3
Ntp138
Rp139
(dp140
g7
S'Programmation Python'
p141
sg9
g1
(g10
g3
Ntp142
Rp143
(dp144
g14
g56
sg15
(dp145
sg17
g139
sg18
g1
(g19
g3
Ntp146
Rp147
(dp148
g23
g56
sbsg24
(g56
(L6L
tp149
tp150
sg27
g28
((lp151
tp152
Rp153
sbsg73
L6L
sbatp154
Rp155
(dp156
S'_sa_adapter'
p157
g1
(csqlalchemy.orm.collections
CollectionAdapter
p158
g3
Ntp159
Rp160
(dp161
S'data'
p162
g155
sS'owner_state'
p163
g41
sS'key'
p164
g52
sbsbsg73
L1L
sbsS'Email'
p165
S'aamer.youssef@gmail.com'
p166
sS'filier_id'
p167
L1L
sg73
L383L
sbag1
(g2
g3
Ntp168
Rp169
(dp170
g7
S'ait abderrahman'
p171
sg9
g1
(g10
g3
Ntp172
Rp173
(dp174
g14
g2
sg15
(dp175
sg17
g169
sg18
g1
(g19
g3
Ntp176
Rp177
(dp178
g23
g2
sbsg24
(g2
(L384L
tp179
tp180
sg27
g28
((lp181
tp182
Rp183
sbsg32
S'mohamed'
p184
sg34
g37
sg165
S'ait abderrahman.mohamed@gmail.com'
p185
sg167
L1L
sg73
L384L
sbag1
(g2
g3
Ntp186
Rp187
(dp188
g7
S'anajjar'
p189
sg9
g1
(g10
g3
Ntp190
Rp191
(dp192
g14
g2
sg15
(dp193
sg17
g187
sg18
g1
(g19
g3
Ntp194
Rp195
(dp196
g23
g2
sbsg24
(g2
(L385L
tp197
tp198
sg27
g28
((lp199
tp200
Rp201
sbsg32
S'chaimaa'
p202
sg34
g37
sg165
S'anajjar.chaimaa@gmail.com'
p203
sg167
L1L
sg73
L385L
sbag1
(g2
g3
Ntp204
Rp205
(dp206
g7
S'asghar'
p207
sg9
g1
(g10
g3
Ntp208
Rp209
(dp210
g14
g2
sg15
(dp211
sg17
g205
sg18
g1
(g19
g3
Ntp212
Rp213
(dp214
g23
g2
sbsg24
(g2
(L386L
tp215
tp216
sg27
g28
((lp217
tp218
Rp219
sbsg32
S'othmane'
p220
sg34
g37
sg165
S'asghar.othmane@gmail.com'
p221
sg167
L1L
sg73
L386L
sbag1
(g2
g3
Ntp222
Rp223
(dp224
g7
S'benachour'
p225
sg9
g1
(g10
g3
Ntp226
Rp227
(dp228
g14
g2
sg15
(dp229
sg17
g223
sg18
g1
(g19
g3
Ntp230
Rp231
(dp232
g23
g2
sbsg24
(g2
(L387L
tp233
tp234
sg27
g28
((lp235
tp236
Rp237
sbsg32
S'fatine'
p238
sg34
g37
sg165
S'benachour.fatine@gmail.com'
p239
sg167
L1L
sg73
L387L
sbag1
(g2
g3
Ntp240
Rp241
(dp242
g7
S'bendhiba'
p243
sg9
g1
(g10
g3
Ntp244
Rp245
(dp246
g14
g2
sg15
(dp247
sg17
g241
sg18
g1
(g19
g3
Ntp248
Rp249
(dp250
g23
g2
sbsg24
(g2
(L388L
tp251
tp252
sg27
g28
((lp253
tp254
Rp255
sbsg32
S'soufiane'
p256
sg34
g37
sg165
S'bendhiba.soufiane@gmail.com'
p257
sg167
L1L
sg73
L388L
sbag1
(g2
g3
Ntp258
Rp259
(dp260
g7
S'benomar'
p261
sg9
g1
(g10
g3
Ntp262
Rp263
(dp264
g14
g2
sg15
(dp265
sg17
g259
sg18
g1
(g19
g3
Ntp266
Rp267
(dp268
g23
g2
sbsg24
(g2
(L389L
tp269
tp270
sg27
g28
((lp271
tp272
Rp273
sbsg32
S'imane'
p274
sg34
g37
sg165
S'benomar.imane@gmail.com'
p275
sg167
L1L
sg73
L389L
sbag1
(g2
g3
Ntp276
Rp277
(dp278
g7
S'bouihi'
p279
sg9
g1
(g10
g3
Ntp280
Rp281
(dp282
g14
g2
sg15
(dp283
sg17
g277
sg18
g1
(g19
g3
Ntp284
Rp285
(dp286
g23
g2
sbsg24
(g2
(L390L
tp287
tp288
sg27
g28
((lp289
tp290
Rp291
sbsg32
S'mehdi'
p292
sg34
g37
sg165
S'bouihi.mehdi@gmail.com'
p293
sg167
L1L
sg73
L390L
sbag1
(g2
g3
Ntp294
Rp295
(dp296
g7
S'boulahia'
p297
sg9
g1
(g10
g3
Ntp298
Rp299
(dp300
g14
g2
sg15
(dp301
sg17
g295
sg18
g1
(g19
g3
Ntp302
Rp303
(dp304
g23
g2
sbsg24
(g2
(L391L
tp305
tp306
sg27
g28
((lp307
tp308
Rp309
sbsg32
S'chaimae'
p310
sg34
g37
sg165
S'boulahia.chaimae@gmail.com'
p311
sg167
L1L
sg73
L391L
sbag1
(g2
g3
Ntp312
Rp313
(dp314
g7
S'boutaher'
p315
sg9
g1
(g10
g3
Ntp316
Rp317
(dp318
g14
g2
sg15
(dp319
sg17
g313
sg18
g1
(g19
g3
Ntp320
Rp321
(dp322
g23
g2
sbsg24
(g2
(L392L
tp323
tp324
sg27
g28
((lp325
tp326
Rp327
sbsg32
S'nadia'
p328
sg34
g37
sg165
S'boutaher.nadia@gmail.com'
p329
sg167
L1L
sg73
L392L
sbag1
(g2
g3
Ntp330
Rp331
(dp332
g7
S'brij'
p333
sg9
g1
(g10
g3
Ntp334
Rp335
(dp336
g14
g2
sg15
(dp337
sg17
g331
sg18
g1
(g19
g3
Ntp338
Rp339
(dp340
g23
g2
sbsg24
(g2
(L393L
tp341
tp342
sg27
g28
((lp343
tp344
Rp345
sbsg32
S'yassine'
p346
sg34
g37
sg165
S'brij.yassine@gmail.com'
p347
sg167
L1L
sg73
L393L
sbag1
(g2
g3
Ntp348
Rp349
(dp350
g7
S'chatbi'
p351
sg9
g1
(g10
g3
Ntp352
Rp353
(dp354
g14
g2
sg15
(dp355
sg17
g349
sg18
g1
(g19
g3
Ntp356
Rp357
(dp358
g23
g2
sbsg24
(g2
(L394L
tp359
tp360
sg27
g28
((lp361
tp362
Rp363
sbsg32
S'abdelhalim'
p364
sg34
g37
sg165
S'chatbi.abdelhalim@gmail.com'
p365
sg167
L1L
sg73
L394L
sbag1
(g2
g3
Ntp366
Rp367
(dp368
g7
S'elalami'
p369
sg9
g1
(g10
g3
Ntp370
Rp371
(dp372
g14
g2
sg15
(dp373
sg17
g367
sg18
g1
(g19
g3
Ntp374
Rp375
(dp376
g23
g2
sbsg24
(g2
(L395L
tp377
tp378
sg27
g28
((lp379
tp380
Rp381
sbsg32
S'mehdi'
p382
sg34
g37
sg165
S'elalami.mehdi@gmail.com'
p383
sg167
L1L
sg73
L395L
sbag1
(g2
g3
Ntp384
Rp385
(dp386
g7
S'el manjaoui'
p387
sg9
g1
(g10
g3
Ntp388
Rp389
(dp390
g14
g2
sg15
(dp391
sg17
g385
sg18
g1
(g19
g3
Ntp392
Rp393
(dp394
g23
g2
sbsg24
(g2
(L396L
tp395
tp396
sg27
g28
((lp397
tp398
Rp399
sbsg32
S'zineb'
p400
sg34
g37
sg165
S'el manjaoui.zineb@gmail.com'
p401
sg167
L1L
sg73
L396L
sbag1
(g2
g3
Ntp402
Rp403
(dp404
g7
S'gordi'
p405
sg9
g1
(g10
g3
Ntp406
Rp407
(dp408
g14
g2
sg15
(dp409
sg17
g403
sg18
g1
(g19
g3
Ntp410
Rp411
(dp412
g23
g2
sbsg24
(g2
(L397L
tp413
tp414
sg27
g28
((lp415
tp416
Rp417
sbsg32
S'hasnaa'
p418
sg34
g37
sg165
S'gordi.hasnaa@gmail.com'
p419
sg167
L1L
sg73
L397L
sbag1
(g2
g3
Ntp420
Rp421
(dp422
g7
S'hatim'
p423
sg9
g1
(g10
g3
Ntp424
Rp425
(dp426
g14
g2
sg15
(dp427
sg17
g421
sg18
g1
(g19
g3
Ntp428
Rp429
(dp430
g23
g2
sbsg24
(g2
(L398L
tp431
tp432
sg27
g28
((lp433
tp434
Rp435
sbsg32
S'widad'
p436
sg34
g37
sg165
S'hatim.widad@gmail.com'
p437
sg167
L1L
sg73
L398L
sbag1
(g2
g3
Ntp438
Rp439
(dp440
g7
S'hemmi'
p441
sg9
g1
(g10
g3
Ntp442
Rp443
(dp444
g14
g2
sg15
(dp445
sg17
g439
sg18
g1
(g19
g3
Ntp446
Rp447
(dp448
g23
g2
sbsg24
(g2
(L399L
tp449
tp450
sg27
g28
((lp451
tp452
Rp453
sbsg32
S'sara'
p454
sg34
g37
sg165
S'hemmi.sara@gmail.com'
p455
sg167
L1L
sg73
L399L
sbag1
(g2
g3
Ntp456
Rp457
(dp458
g7
S'housni'
p459
sg9
g1
(g10
g3
Ntp460
Rp461
(dp462
g14
g2
sg15
(dp463
sg17
g457
sg18
g1
(g19
g3
Ntp464
Rp465
(dp466
g23
g2
sbsg24
(g2
(L400L
tp467
tp468
sg27
g28
((lp469
tp470
Rp471
sbsg32
S'shahrazade'
p472
sg34
g37
sg165
S'housni.shahrazade@gmail.com'
p473
sg167
L1L
sg73
L400L
sbag1
(g2
g3
Ntp474
Rp475
(dp476
g7
S'izilli'
p477
sg9
g1
(g10
g3
Ntp478
Rp479
(dp480
g14
g2
sg15
(dp481
sg17
g475
sg18
g1
(g19
g3
Ntp482
Rp483
(dp484
g23
g2
sbsg24
(g2
(L401L
tp485
tp486
sg27
g28
((lp487
tp488
Rp489
sbsg32
S'abdelhakim'
p490
sg34
g37
sg165
S'izilli.abdelhakim@gmail.com'
p491
sg167
L1L
sg73
L401L
sbag1
(g2
g3
Ntp492
Rp493
(dp494
g7
S'jabal'
p495
sg9
g1
(g10
g3
Ntp496
Rp497
(dp498
g14
g2
sg15
(dp499
sg17
g493
sg18
g1
(g19
g3
Ntp500
Rp501
(dp502
g23
g2
sbsg24
(g2
(L402L
tp503
tp504
sg27
g28
((lp505
tp506
Rp507
sbsg32
S'imane'
p508
sg34
g37
sg165
S'jabal.imane@gmail.com'
p509
sg167
L1L
sg73
L402L
sbag1
(g2
g3
Ntp510
Rp511
(dp512
g7
S'jidar'
p513
sg9
g1
(g10
g3
Ntp514
Rp515
(dp516
g14
g2
sg15
(dp517
sg17
g511
sg18
g1
(g19
g3
Ntp518
Rp519
(dp520
g23
g2
sbsg24
(g2
(L403L
tp521
tp522
sg27
g28
((lp523
tp524
Rp525
sbsg32
S'taha'
p526
sg34
g37
sg165
S'jidar.taha@gmail.com'
p527
sg167
L1L
sg73
L403L
sbag1
(g2
g3
Ntp528
Rp529
(dp530
g7
S'kamili'
p531
sg9
g1
(g10
g3
Ntp532
Rp533
(dp534
g14
g2
sg15
(dp535
sg17
g529
sg18
g1
(g19
g3
Ntp536
Rp537
(dp538
g23
g2
sbsg24
(g2
(L404L
tp539
tp540
sg27
g28
((lp541
tp542
Rp543
sbsg32
S'rachid'
p544
sg34
g37
sg165
S'kamili.rachid@gmail.com'
p545
sg167
L1L
sg73
L404L
sbag1
(g2
g3
Ntp546
Rp547
(dp548
g7
S'lahnine'
p549
sg9
g1
(g10
g3
Ntp550
Rp551
(dp552
g14
g2
sg15
(dp553
sg17
g547
sg18
g1
(g19
g3
Ntp554
Rp555
(dp556
g23
g2
sbsg24
(g2
(L405L
tp557
tp558
sg27
g28
((lp559
tp560
Rp561
sbsg32
S'walid'
p562
sg34
g37
sg165
S'lahnine.walid@gmail.com'
p563
sg167
L1L
sg73
L405L
sbag1
(g2
g3
Ntp564
Rp565
(dp566
g7
S'motad'
p567
sg9
g1
(g10
g3
Ntp568
Rp569
(dp570
g14
g2
sg15
(dp571
sg17
g565
sg18
g1
(g19
g3
Ntp572
Rp573
(dp574
g23
g2
sbsg24
(g2
(L406L
tp575
tp576
sg27
g28
((lp577
tp578
Rp579
sbsg32
S'mohamed amine'
p580
sg34
g37
sg165
S'motad.mohamed amine@gmail.com'
p581
sg167
L1L
sg73
L406L
sbag1
(g2
g3
Ntp582
Rp583
(dp584
g7
S'moussalli'
p585
sg9
g1
(g10
g3
Ntp586
Rp587
(dp588
g14
g2
sg15
(dp589
sg17
g583
sg18
g1
(g19
g3
Ntp590
Rp591
(dp592
g23
g2
sbsg24
(g2
(L407L
tp593
tp594
sg27
g28
((lp595
tp596
Rp597
sbsg32
S'ali'
p598
sg34
g37
sg165
S'moussalli.ali@gmail.com'
p599
sg167
L1L
sg73
L407L
sbag1
(g2
g3
Ntp600
Rp601
(dp602
g7
S'nadafi'
p603
sg9
g1
(g10
g3
Ntp604
Rp605
(dp606
g14
g2
sg15
(dp607
sg17
g601
sg18
g1
(g19
g3
Ntp608
Rp609
(dp610
g23
g2
sbsg24
(g2
(L408L
tp611
tp612
sg27
g28
((lp613
tp614
Rp615
sbsg32
S'othmane'
p616
sg34
g37
sg165
S'nadafi.othmane@gmail.com'
p617
sg167
L1L
sg73
L408L
sbag1
(g2
g3
Ntp618
Rp619
(dp620
g7
S'niri'
p621
sg9
g1
(g10
g3
Ntp622
Rp623
(dp624
g14
g2
sg15
(dp625
sg17
g619
sg18
g1
(g19
g3
Ntp626
Rp627
(dp628
g23
g2
sbsg24
(g2
(L409L
tp629
tp630
sg27
g28
((lp631
tp632
Rp633
sbsg32
S'rania'
p634
sg34
g37
sg165
S'niri.rania@gmail.com'
p635
sg167
L1L
sg73
L409L
sbag1
(g2
g3
Ntp636
Rp637
(dp638
g7
S'oabi'
p639
sg9
g1
(g10
g3
Ntp640
Rp641
(dp642
g14
g2
sg15
(dp643
sg17
g637
sg18
g1
(g19
g3
Ntp644
Rp645
(dp646
g23
g2
sbsg24
(g2
(L410L
tp647
tp648
sg27
g28
((lp649
tp650
Rp651
sbsg32
S'mohammed'
p652
sg34
g37
sg165
S'oabi.mohammed@gmail.com'
p653
sg167
L1L
sg73
L410L
sbag1
(g2
g3
Ntp654
Rp655
(dp656
g7
S'outal'
p657
sg9
g1
(g10
g3
Ntp658
Rp659
(dp660
g14
g2
sg15
(dp661
sg17
g655
sg18
g1
(g19
g3
Ntp662
Rp663
(dp664
g23
g2
sbsg24
(g2
(L411L
tp665
tp666
sg27
g28
((lp667
tp668
Rp669
sbsg32
S'wajih'
p670
sg34
g37
sg165
S'outal.wajih@gmail.com'
p671
sg167
L1L
sg73
L411L
sbag1
(g2
g3
Ntp672
Rp673
(dp674
g7
S'rebik'
p675
sg9
g1
(g10
g3
Ntp676
Rp677
(dp678
g14
g2
sg15
(dp679
sg17
g673
sg18
g1
(g19
g3
Ntp680
Rp681
(dp682
g23
g2
sbsg24
(g2
(L412L
tp683
tp684
sg27
g28
((lp685
tp686
Rp687
sbsg32
S'rachid'
p688
sg34
g37
sg165
S'rebik.rachid@gmail.com'
p689
sg167
L1L
sg73
L412L
sbag1
(g2
g3
Ntp690
Rp691
(dp692
g7
S'sahnouni'
p693
sg9
g1
(g10
g3
Ntp694
Rp695
(dp696
g14
g2
sg15
(dp697
sg17
g691
sg18
g1
(g19
g3
Ntp698
Rp699
(dp700
g23
g2
sbsg24
(g2
(L413L
tp701
tp702
sg27
g28
((lp703
tp704
Rp705
sbsg32
S'tariq'
p706
sg34
g37
sg165
S'sahnouni.tariq@gmail.com'
p707
sg167
L1L
sg73
L413L
sbag1
(g2
g3
Ntp708
Rp709
(dp710
g7
S'tegmousse'
p711
sg9
g1
(g10
g3
Ntp712
Rp713
(dp714
g14
g2
sg15
(dp715
sg17
g709
sg18
g1
(g19
g3
Ntp716
Rp717
(dp718
g23
g2
sbsg24
(g2
(L414L
tp719
tp720
sg27
g28
((lp721
tp722
Rp723
sbsg32
S'chaimaa'
p724
sg34
g37
sg165
S'tegmousse.chaimaa@gmail.com'
p725
sg167
L1L
sg73
L414L
sbag1
(g2
g3
Ntp726
Rp727
(dp728
g7
S'touymasna'
p729
sg9
g1
(g10
g3
Ntp730
Rp731
(dp732
g14
g2
sg15
(dp733
sg17
g727
sg18
g1
(g19
g3
Ntp734
Rp735
(dp736
g23
g2
sbsg24
(g2
(L415L
tp737
tp738
sg27
g28
((lp739
tp740
Rp741
sbsg32
S'houssam'
p742
sg34
g37
sg165
S'touymasna.houssam@gmail.com'
p743
sg167
L1L
sg73
L415L
sbag1
(g2
g3
Ntp744
Rp745
(dp746
g7
S'wadif'
p747
sg9
g1
(g10
g3
Ntp748
Rp749
(dp750
g14
g2
sg15
(dp751
sg17
g745
sg18
g1
(g19
g3
Ntp752
Rp753
(dp754
g23
g2
sbsg24
(g2
(L416L
tp755
tp756
sg27
g28
((lp757
tp758
Rp759
sbsg32
S'salaheddine'
p760
sg34
g37
sg165
S'wadif.salaheddine@gmail.com'
p761
sg167
L1L
sg73
L416L
sbag1
(g2
g3
Ntp762
Rp763
(dp764
g7
S'zaazaa'
p765
sg9
g1
(g10
g3
Ntp766
Rp767
(dp768
g14
g2
sg15
(dp769
sg17
g763
sg18
g1
(g19
g3
Ntp770
Rp771
(dp772
g23
g2
sbsg24
(g2
(L417L
tp773
tp774
sg27
g28
((lp775
tp776
Rp777
sbsg32
S'mouad'
p778
sg34
g37
sg165
S'zaazaa.mouad@gmail.com'
p779
sg167
L1L
sg73
L417L
sbag1
(g2
g3
Ntp780
Rp781
(dp782
g7
S'aater'
p783
sg9
g1
(g10
g3
Ntp784
Rp785
(dp786
g14
g2
sg15
(dp787
sg17
g781
sg18
g1
(g19
g3
Ntp788
Rp789
(dp790
g23
g2
sbsg24
(g2
(L418L
tp791
tp792
sg27
g28
((lp793
tp794
Rp795
sbsg32
S'ayoub'
p796
sg34
g1
(g35
g3
Ntp797
Rp798
(dp799
g7
S'iostl'
p800
sg9
g1
(g10
g3
Ntp801
Rp802
(dp803
g14
g35
sg15
(dp804
sg17
g798
sg18
g1
(g19
g3
Ntp805
Rp806
(dp807
g23
g35
sbsg24
(g35
(L2L
tp808
tp809
sg27
g28
((lp810
tp811
Rp812
sbsg52
g1
(g53
g54
(lp813
g123
ag139
ag1
(g56
g3
Ntp814
Rp815
(dp816
g7
S'xml'
p817
sg9
g1
(g10
g3
Ntp818
Rp819
(dp820
g14
g56
sg15
(dp821
sg17
g815
sg18
g1
(g19
g3
Ntp822
Rp823
(dp824
g23
g56
sbsg24
(g56
(L7L
tp825
tp826
sg27
g28
((lp827
tp828
Rp829
sbsg73
L7L
sbag1
(g56
g3
Ntp830
Rp831
(dp832
g7
S'Programmation lineaire avancee'
p833
sg9
g1
(g10
g3
Ntp834
Rp835
(dp836
g14
g56
sg15
(dp837
sg17
g831
sg18
g1
(g19
g3
Ntp838
Rp839
(dp840
g23
g56
sbsg24
(g56
(L8L
tp841
tp842
sg27
g28
((lp843
tp844
Rp845
sbsg73
L8L
sbag1
(g56
g3
Ntp846
Rp847
(dp848
g7
S'Theorie des graphes'
p849
sg9
g1
(g10
g3
Ntp850
Rp851
(dp852
g14
g56
sg15
(dp853
sg17
g847
sg18
g1
(g19
g3
Ntp854
Rp855
(dp856
g23
g56
sbsg24
(g56
(L9L
tp857
tp858
sg27
g28
((lp859
tp860
Rp861
sbsg73
L9L
sbag1
(g56
g3
Ntp862
Rp863
(dp864
g7
S'JEE'
p865
sg9
g1
(g10
g3
Ntp866
Rp867
(dp868
g14
g56
sg15
(dp869
sg17
g863
sg18
g1
(g19
g3
Ntp870
Rp871
(dp872
g23
g56
sbsg24
(g56
(L10L
tp873
tp874
sg27
g28
((lp875
tp876
Rp877
sbsg73
L10L
sbag1
(g56
g3
Ntp878
Rp879
(dp880
g7
S'ASP.net'
p881
sg9
g1
(g10
g3
Ntp882
Rp883
(dp884
g14
g56
sg15
(dp885
sg17
g879
sg18
g1
(g19
g3
Ntp886
Rp887
(dp888
g23
g56
sbsg24
(g56
(L11L
tp889
tp890
sg27
g28
((lp891
tp892
Rp893
sbsg73
L11L
sbag1
(g56
g3
Ntp894
Rp895
(dp896
g7
S'buisness intelligence'
p897
sg9
g1
(g10
g3
Ntp898
Rp899
(dp900
g14
g56
sg15
(dp901
sg17
g895
sg18
g1
(g19
g3
Ntp902
Rp903
(dp904
g23
g56
sbsg24
(g56
(L12L
tp905
tp906
sg27
g28
((lp907
tp908
Rp909
sbsg73
L12L
sbag1
(g56
g3
Ntp910
Rp911
(dp912
g7
S'communication'
p913
sg9
g1
(g10
g3
Ntp914
Rp915
(dp916
g14
g56
sg15
(dp917
sg17
g911
sg18
g1
(g19
g3
Ntp918
Rp919
(dp920
g23
g56
sbsg24
(g56
(L13L
tp921
tp922
sg27
g28
((lp923
tp924
Rp925
sbsg73
L13L
sbatp926
Rp927
(dp928
g157
g1
(g158
g3
Ntp929
Rp930
(dp931
g162
g927
sg163
g802
sg164
g52
sbsbsg73
L2L
sbsg165
S'aater.ayoub@gmail.com'
p932
sg167
L2L
sg73
L418L
sbag1
(g2
g3
Ntp933
Rp934
(dp935
g7
S'abbara'
p936
sg9
g1
(g10
g3
Ntp937
Rp938
(dp939
g14
g2
sg15
(dp940
sg17
g934
sg18
g1
(g19
g3
Ntp941
Rp942
(dp943
g23
g2
sbsg24
(g2
(L419L
tp944
tp945
sg27
g28
((lp946
tp947
Rp948
sbsg32
S'ghizlane'
p949
sg34
g798
sg165
S'abbara.ghizlane@gmail.com'
p950
sg167
L2L
sg73
L419L
sbag1
(g2
g3
Ntp951
Rp952
(dp953
g7
S'abidar'
p954
sg9
g1
(g10
g3
Ntp955
Rp956
(dp957
g14
g2
sg15
(dp958
sg17
g952
sg18
g1
(g19
g3
Ntp959
Rp960
(dp961
g23
g2
sbsg24
(g2
(L420L
tp962
tp963
sg27
g28
((lp964
tp965
Rp966
sbsg32
S'mourad'
p967
sg34
g798
sg165
S'abidar.mourad@gmail.com'
p968
sg167
L2L
sg73
L420L
sbag1
(g2
g3
Ntp969
Rp970
(dp971
g7
S'alami taidi'
p972
sg9
g1
(g10
g3
Ntp973
Rp974
(dp975
g14
g2
sg15
(dp976
sg17
g970
sg18
g1
(g19
g3
Ntp977
Rp978
(dp979
g23
g2
sbsg24
(g2
(L421L
tp980
tp981
sg27
g28
((lp982
tp983
Rp984
sbsg32
S'zineb'
p985
sg34
g798
sg165
S'alami taidi.zineb@gmail.com'
p986
sg167
L2L
sg73
L421L
sbag1
(g2
g3
Ntp987
Rp988
(dp989
g7
S'alami taidi'
p990
sg9
g1
(g10
g3
Ntp991
Rp992
(dp993
g14
g2
sg15
(dp994
sg17
g988
sg18
g1
(g19
g3
Ntp995
Rp996
(dp997
g23
g2
sbsg24
(g2
(L422L
tp998
tp999
sg27
g28
((lp1000
tp1001
Rp1002
sbsg32
S'abdelkarim'
p1003
sg34
g798
sg165
S'alami taidi.abdelkarim@gmail.com'
p1004
sg167
L2L
sg73
L422L
sbag1
(g2
g3
Ntp1005
Rp1006
(dp1007
g7
S'amnay'
p1008
sg9
g1
(g10
g3
Ntp1009
Rp1010
(dp1011
g14
g2
sg15
(dp1012
sg17
g1006
sg18
g1
(g19
g3
Ntp1013
Rp1014
(dp1015
g23
g2
sbsg24
(g2
(L423L
tp1016
tp1017
sg27
g28
((lp1018
tp1019
Rp1020
sbsg32
S'meriem'
p1021
sg34
g798
sg165
S'amnay.meriem@gmail.com'
p1022
sg167
L2L
sg73
L423L
sbag1
(g2
g3
Ntp1023
Rp1024
(dp1025
g7
S'azima'
p1026
sg9
g1
(g10
g3
Ntp1027
Rp1028
(dp1029
g14
g2
sg15
(dp1030
sg17
g1024
sg18
g1
(g19
g3
Ntp1031
Rp1032
(dp1033
g23
g2
sbsg24
(g2
(L424L
tp1034
tp1035
sg27
g28
((lp1036
tp1037
Rp1038
sbsg32
S'yassine'
p1039
sg34
g798
sg165
S'azima.yassine@gmail.com'
p1040
sg167
L2L
sg73
L424L
sbag1
(g2
g3
Ntp1041
Rp1042
(dp1043
g7
S'bahiddi'
p1044
sg9
g1
(g10
g3
Ntp1045
Rp1046
(dp1047
g14
g2
sg15
(dp1048
sg17
g1042
sg18
g1
(g19
g3
Ntp1049
Rp1050
(dp1051
g23
g2
sbsg24
(g2
(L425L
tp1052
tp1053
sg27
g28
((lp1054
tp1055
Rp1056
sbsg32
S'sara'
p1057
sg34
g798
sg165
S'bahiddi.sara@gmail.com'
p1058
sg167
L2L
sg73
L425L
sbag1
(g2
g3
Ntp1059
Rp1060
(dp1061
g7
S'belbacha'
p1062
sg9
g1
(g10
g3
Ntp1063
Rp1064
(dp1065
g14
g2
sg15
(dp1066
sg17
g1060
sg18
g1
(g19
g3
Ntp1067
Rp1068
(dp1069
g23
g2
sbsg24
(g2
(L426L
tp1070
tp1071
sg27
g28
((lp1072
tp1073
Rp1074
sbsg32
S'el mehdi'
p1075
sg34
g798
sg165
S'belbacha.el mehdi@gmail.com'
p1076
sg167
L2L
sg73
L426L
sbag1
(g2
g3
Ntp1077
Rp1078
(dp1079
g7
S'bella'
p1080
sg9
g1
(g10
g3
Ntp1081
Rp1082
(dp1083
g14
g2
sg15
(dp1084
sg17
g1078
sg18
g1
(g19
g3
Ntp1085
Rp1086
(dp1087
g23
g2
sbsg24
(g2
(L427L
tp1088
tp1089
sg27
g28
((lp1090
tp1091
Rp1092
sbsg32
S'ghizlane'
p1093
sg34
g798
sg165
S'bella.ghizlane@gmail.com'
p1094
sg167
L2L
sg73
L427L
sbag1
(g2
g3
Ntp1095
Rp1096
(dp1097
g7
S'benyoussef'
p1098
sg9
g1
(g10
g3
Ntp1099
Rp1100
(dp1101
g14
g2
sg15
(dp1102
sg17
g1096
sg18
g1
(g19
g3
Ntp1103
Rp1104
(dp1105
g23
g2
sbsg24
(g2
(L428L
tp1106
tp1107
sg27
g28
((lp1108
tp1109
Rp1110
sbsg32
S'el mehdi'
p1111
sg34
g798
sg165
S'benyoussef.el mehdi@gmail.com'
p1112
sg167
L2L
sg73
L428L
sbag1
(g2
g3
Ntp1113
Rp1114
(dp1115
g7
S'bouchra'
p1116
sg9
g1
(g10
g3
Ntp1117
Rp1118
(dp1119
g14
g2
sg15
(dp1120
sg17
g1114
sg18
g1
(g19
g3
Ntp1121
Rp1122
(dp1123
g23
g2
sbsg24
(g2
(L429L
tp1124
tp1125
sg27
g28
((lp1126
tp1127
Rp1128
sbsg32
S'abdelilah'
p1129
sg34
g798
sg165
S'bouchra.abdelilah@gmail.com'
p1130
sg167
L2L
sg73
L429L
sbag1
(g2
g3
Ntp1131
Rp1132
(dp1133
g7
S'benmoussa'
p1134
sg9
g1
(g10
g3
Ntp1135
Rp1136
(dp1137
g14
g2
sg15
(dp1138
sg17
g1132
sg18
g1
(g19
g3
Ntp1139
Rp1140
(dp1141
g23
g2
sbsg24
(g2
(L430L
tp1142
tp1143
sg27
g28
((lp1144
tp1145
Rp1146
sbsg32
S'soukaina'
p1147
sg34
g798
sg165
S'benmoussa.soukaina@gmail.com'
p1148
sg167
L2L
sg73
L430L
sbag1
(g2
g3
Ntp1149
Rp1150
(dp1151
g7
S'bououhrich'
p1152
sg9
g1
(g10
g3
Ntp1153
Rp1154
(dp1155
g14
g2
sg15
(dp1156
sg17
g1150
sg18
g1
(g19
g3
Ntp1157
Rp1158
(dp1159
g23
g2
sbsg24
(g2
(L431L
tp1160
tp1161
sg27
g28
((lp1162
tp1163
Rp1164
sbsg32
S'fatine'
p1165
sg34
g798
sg165
S'bououhrich.fatine@gmail.com'
p1166
sg167
L2L
sg73
L431L
sbag1
(g2
g3
Ntp1167
Rp1168
(dp1169
g7
S'bouzoubaa'
p1170
sg9
g1
(g10
g3
Ntp1171
Rp1172
(dp1173
g14
g2
sg15
(dp1174
sg17
g1168
sg18
g1
(g19
g3
Ntp1175
Rp1176
(dp1177
g23
g2
sbsg24
(g2
(L432L
tp1178
tp1179
sg27
g28
((lp1180
tp1181
Rp1182
sbsg32
S'yassine'
p1183
sg34
g798
sg165
S'bouzoubaa.yassine@gmail.com'
p1184
sg167
L2L
sg73
L432L
sbag1
(g2
g3
Ntp1185
Rp1186
(dp1187
g7
S'chahir'
p1188
sg9
g1
(g10
g3
Ntp1189
Rp1190
(dp1191
g14
g2
sg15
(dp1192
sg17
g1186
sg18
g1
(g19
g3
Ntp1193
Rp1194
(dp1195
g23
g2
sbsg24
(g2
(L433L
tp1196
tp1197
sg27
g28
((lp1198
tp1199
Rp1200
sbsg32
S'sanae'
p1201
sg34
g798
sg165
S'chahir.sanae@gmail.com'
p1202
sg167
L2L
sg73
L433L
sbag1
(g2
g3
Ntp1203
Rp1204
(dp1205
g7
S'charaa'
p1206
sg9
g1
(g10
g3
Ntp1207
Rp1208
(dp1209
g14
g2
sg15
(dp1210
sg17
g1204
sg18
g1
(g19
g3
Ntp1211
Rp1212
(dp1213
g23
g2
sbsg24
(g2
(L434L
tp1214
tp1215
sg27
g28
((lp1216
tp1217
Rp1218
sbsg32
S'safaa'
p1219
sg34
g798
sg165
S'charaa.safaa@gmail.com'
p1220
sg167
L2L
sg73
L434L
sbag1
(g2
g3
Ntp1221
Rp1222
(dp1223
g7
S'chouaf'
p1224
sg9
g1
(g10
g3
Ntp1225
Rp1226
(dp1227
g14
g2
sg15
(dp1228
sg17
g1222
sg18
g1
(g19
g3
Ntp1229
Rp1230
(dp1231
g23
g2
sbsg24
(g2
(L435L
tp1232
tp1233
sg27
g28
((lp1234
tp1235
Rp1236
sbsg32
S'yasser'
p1237
sg34
g798
sg165
S'chouaf.yasser@gmail.com'
p1238
sg167
L2L
sg73
L435L
sbag1
(g2
g3
Ntp1239
Rp1240
(dp1241
g7
S'hammouch'
p1242
sg9
g1
(g10
g3
Ntp1243
Rp1244
(dp1245
g14
g2
sg15
(dp1246
sg17
g1240
sg18
g1
(g19
g3
Ntp1247
Rp1248
(dp1249
g23
g2
sbsg24
(g2
(L436L
tp1250
tp1251
sg27
g28
((lp1252
tp1253
Rp1254
sbsg32
S'soukaina'
p1255
sg34
g798
sg165
S'hammouch.soukaina@gmail.com'
p1256
sg167
L2L
sg73
L436L
sbag1
(g2
g3
Ntp1257
Rp1258
(dp1259
g7
S'el yamlahi'
p1260
sg9
g1
(g10
g3
Ntp1261
Rp1262
(dp1263
g14
g2
sg15
(dp1264
sg17
g1258
sg18
g1
(g19
g3
Ntp1265
Rp1266
(dp1267
g23
g2
sbsg24
(g2
(L437L
tp1268
tp1269
sg27
g28
((lp1270
tp1271
Rp1272
sbsg32
S'oumayma'
p1273
sg34
g798
sg165
S'el yamlahi.oumayma@gmail.com'
p1274
sg167
L2L
sg73
L437L
sbag1
(g2
g3
Ntp1275
Rp1276
(dp1277
g7
S'errammani'
p1278
sg9
g1
(g10
g3
Ntp1279
Rp1280
(dp1281
g14
g2
sg15
(dp1282
sg17
g1276
sg18
g1
(g19
g3
Ntp1283
Rp1284
(dp1285
g23
g2
sbsg24
(g2
(L438L
tp1286
tp1287
sg27
g28
((lp1288
tp1289
Rp1290
sbsg32
S'mouna'
p1291
sg34
g798
sg165
S'errammani.mouna@gmail.com'
p1292
sg167
L2L
sg73
L438L
sbag1
(g2
g3
Ntp1293
Rp1294
(dp1295
g7
S'haress'
p1296
sg9
g1
(g10
g3
Ntp1297
Rp1298
(dp1299
g14
g2
sg15
(dp1300
sg17
g1294
sg18
g1
(g19
g3
Ntp1301
Rp1302
(dp1303
g23
g2
sbsg24
(g2
(L439L
tp1304
tp1305
sg27
g28
((lp1306
tp1307
Rp1308
sbsg32
S'amal'
p1309
sg34
g798
sg165
S'haress.amal@gmail.com'
p1310
sg167
L2L
sg73
L439L
sbag1
(g2
g3
Ntp1311
Rp1312
(dp1313
g7
S'hrar'
p1314
sg9
g1
(g10
g3
Ntp1315
Rp1316
(dp1317
g14
g2
sg15
(dp1318
sg17
g1312
sg18
g1
(g19
g3
Ntp1319
Rp1320
(dp1321
g23
g2
sbsg24
(g2
(L440L
tp1322
tp1323
sg27
g28
((lp1324
tp1325
Rp1326
sbsg32
S'majdouline'
p1327
sg34
g798
sg165
S'hrar.majdouline@gmail.com'
p1328
sg167
L2L
sg73
L440L
sbag1
(g2
g3
Ntp1329
Rp1330
(dp1331
g7
S'khechou'
p1332
sg9
g1
(g10
g3
Ntp1333
Rp1334
(dp1335
g14
g2
sg15
(dp1336
sg17
g1330
sg18
g1
(g19
g3
Ntp1337
Rp1338
(dp1339
g23
g2
sbsg24
(g2
(L441L
tp1340
tp1341
sg27
g28
((lp1342
tp1343
Rp1344
sbsg32
S'amina'
p1345
sg34
g798
sg165
S'khechou.amina@gmail.com'
p1346
sg167
L2L
sg73
L441L
sbag1
(g2
g3
Ntp1347
Rp1348
(dp1349
g7
S'lagraini'
p1350
sg9
g1
(g10
g3
Ntp1351
Rp1352
(dp1353
g14
g2
sg15
(dp1354
sg17
g1348
sg18
g1
(g19
g3
Ntp1355
Rp1356
(dp1357
g23
g2
sbsg24
(g2
(L442L
tp1358
tp1359
sg27
g28
((lp1360
tp1361
Rp1362
sbsg32
S'amina'
p1363
sg34
g798
sg165
S'lagraini.amina@gmail.com'
p1364
sg167
L2L
sg73
L442L
sbag1
(g2
g3
Ntp1365
Rp1366
(dp1367
g7
S'lahkim'
p1368
sg9
g1
(g10
g3
Ntp1369
Rp1370
(dp1371
g14
g2
sg15
(dp1372
sg17
g1366
sg18
g1
(g19
g3
Ntp1373
Rp1374
(dp1375
g23
g2
sbsg24
(g2
(L443L
tp1376
tp1377
sg27
g28
((lp1378
tp1379
Rp1380
sbsg32
S'mohammed'
p1381
sg34
g798
sg165
S'lahkim.mohammed@gmail.com'
p1382
sg167
L2L
sg73
L443L
sbag1
(g2
g3
Ntp1383
Rp1384
(dp1385
g7
S'lamaizi'
p1386
sg9
g1
(g10
g3
Ntp1387
Rp1388
(dp1389
g14
g2
sg15
(dp1390
sg17
g1384
sg18
g1
(g19
g3
Ntp1391
Rp1392
(dp1393
g23
g2
sbsg24
(g2
(L444L
tp1394
tp1395
sg27
g28
((lp1396
tp1397
Rp1398
sbsg32
S'anas'
p1399
sg34
g798
sg165
S'lamaizi.anas@gmail.com'
p1400
sg167
L2L
sg73
L444L
sbag1
(g2
g3
Ntp1401
Rp1402
(dp1403
g7
S'mahassine'
p1404
sg9
g1
(g10
g3
Ntp1405
Rp1406
(dp1407
g14
g2
sg15
(dp1408
sg17
g1402
sg18
g1
(g19
g3
Ntp1409
Rp1410
(dp1411
g23
g2
sbsg24
(g2
(L445L
tp1412
tp1413
sg27
g28
((lp1414
tp1415
Rp1416
sbsg32
S'abdessamad'
p1417
sg34
g798
sg165
S'mahassine.abdessamad@gmail.com'
p1418
sg167
L2L
sg73
L445L
sbag1
(g2
g3
Ntp1419
Rp1420
(dp1421
g7
S'malki'
p1422
sg9
g1
(g10
g3
Ntp1423
Rp1424
(dp1425
g14
g2
sg15
(dp1426
sg17
g1420
sg18
g1
(g19
g3
Ntp1427
Rp1428
(dp1429
g23
g2
sbsg24
(g2
(L446L
tp1430
tp1431
sg27
g28
((lp1432
tp1433
Rp1434
sbsg32
S'nora'
p1435
sg34
g798
sg165
S'malki.nora@gmail.com'
p1436
sg167
L2L
sg73
L446L
sbag1
(g2
g3
Ntp1437
Rp1438
(dp1439
g7
S'mallouk'
p1440
sg9
g1
(g10
g3
Ntp1441
Rp1442
(dp1443
g14
g2
sg15
(dp1444
sg17
g1438
sg18
g1
(g19
g3
Ntp1445
Rp1446
(dp1447
g23
g2
sbsg24
(g2
(L447L
tp1448
tp1449
sg27
g28
((lp1450
tp1451
Rp1452
sbsg32
S'issam'
p1453
sg34
g798
sg165
S'mallouk.issam@gmail.com'
p1454
sg167
L2L
sg73
L447L
sbag1
(g2
g3
Ntp1455
Rp1456
(dp1457
g7
S'oulkhir'
p1458
sg9
g1
(g10
g3
Ntp1459
Rp1460
(dp1461
g14
g2
sg15
(dp1462
sg17
g1456
sg18
g1
(g19
g3
Ntp1463
Rp1464
(dp1465
g23
g2
sbsg24
(g2
(L448L
tp1466
tp1467
sg27
g28
((lp1468
tp1469
Rp1470
sbsg32
S'ayoub'
p1471
sg34
g798
sg165
S'oulkhir.ayoub@gmail.com'
p1472
sg167
L2L
sg73
L448L
sbag1
(g2
g3
Ntp1473
Rp1474
(dp1475
g7
S'rhoulam'
p1476
sg9
g1
(g10
g3
Ntp1477
Rp1478
(dp1479
g14
g2
sg15
(dp1480
sg17
g1474
sg18
g1
(g19
g3
Ntp1481
Rp1482
(dp1483
g23
g2
sbsg24
(g2
(L449L
tp1484
tp1485
sg27
g28
((lp1486
tp1487
Rp1488
sbsg32
S'ghizlane'
p1489
sg34
g798
sg165
S'rhoulam.ghizlane@gmail.com'
p1490
sg167
L2L
sg73
L449L
sbag1
(g2
g3
Ntp1491
Rp1492
(dp1493
g7
S'sabbar'
p1494
sg9
g1
(g10
g3
Ntp1495
Rp1496
(dp1497
g14
g2
sg15
(dp1498
sg17
g1492
sg18
g1
(g19
g3
Ntp1499
Rp1500
(dp1501
g23
g2
sbsg24
(g2
(L450L
tp1502
tp1503
sg27
g28
((lp1504
tp1505
Rp1506
sbsg32
S'soukaina'
p1507
sg34
g798
sg165
S'sabbar.soukaina@gmail.com'
p1508
sg167
L2L
sg73
L450L
sbag1
(g2
g3
Ntp1509
Rp1510
(dp1511
g7
S'saidi idrissi'
p1512
sg9
g1
(g10
g3
Ntp1513
Rp1514
(dp1515
g14
g2
sg15
(dp1516
sg17
g1510
sg18
g1
(g19
g3
Ntp1517
Rp1518
(dp1519
g23
g2
sbsg24
(g2
(L451L
tp1520
tp1521
sg27
g28
((lp1522
tp1523
Rp1524
sbsg32
S'boutaina'
p1525
sg34
g798
sg165
S'saidi idrissi.boutaina@gmail.com'
p1526
sg167
L2L
sg73
L451L
sbag1
(g2
g3
Ntp1527
Rp1528
(dp1529
g7
S'sidibe'
p1530
sg9
g1
(g10
g3
Ntp1531
Rp1532
(dp1533
g14
g2
sg15
(dp1534
sg17
g1528
sg18
g1
(g19
g3
Ntp1535
Rp1536
(dp1537
g23
g2
sbsg24
(g2
(L452L
tp1538
tp1539
sg27
g28
((lp1540
tp1541
Rp1542
sbsg32
S'samuel'
p1543
sg34
g798
sg165
S'sidibe.samuel@gmail.com'
p1544
sg167
L2L
sg73
L452L
sbag1
(g2
g3
Ntp1545
Rp1546
(dp1547
g7
S'tahiri joutei'
p1548
sg9
g1
(g10
g3
Ntp1549
Rp1550
(dp1551
g14
g2
sg15
(dp1552
sg17
g1546
sg18
g1
(g19
g3
Ntp1553
Rp1554
(dp1555
g23
g2
sbsg24
(g2
(L453L
tp1556
tp1557
sg27
g28
((lp1558
tp1559
Rp1560
sbsg32
S'kamar'
p1561
sg34
g798
sg165
S'tahiri joutei.kamar@gmail.com'
p1562
sg167
L2L
sg73
L453L
sbag1
(g2
g3
Ntp1563
Rp1564
(dp1565
g7
S'thoura'
p1566
sg9
g1
(g10
g3
Ntp1567
Rp1568
(dp1569
g14
g2
sg15
(dp1570
sg17
g1564
sg18
g1
(g19
g3
Ntp1571
Rp1572
(dp1573
g23
g2
sbsg24
(g2
(L454L
tp1574
tp1575
sg27
g28
((lp1576
tp1577
Rp1578
sbsg32
S'oussama'
p1579
sg34
g798
sg165
S'thoura.oussama@gmail.com'
p1580
sg167
L2L
sg73
L454L
sbag1
(g2
g3
Ntp1581
Rp1582
(dp1583
g7
S'bachraoui'
p1584
sg9
g1
(g10
g3
Ntp1585
Rp1586
(dp1587
g14
g2
sg15
(dp1588
sg17
g1582
sg18
g1
(g19
g3
Ntp1589
Rp1590
(dp1591
g23
g2
sbsg24
(g2
(L455L
tp1592
tp1593
sg27
g28
((lp1594
tp1595
Rp1596
sbsg32
S'mouad'
p1597
sg34
g798
sg165
S'bachraoui.mouad@gmail.com'
p1598
sg167
L2L
sg73
L455L
sbag1
(g2
g3
Ntp1599
Rp1600
(dp1601
g7
S'yombouna'
p1602
sg9
g1
(g10
g3
Ntp1603
Rp1604
(dp1605
g14
g2
sg15
(dp1606
sg17
g1600
sg18
g1
(g19
g3
Ntp1607
Rp1608
(dp1609
g23
g2
sbsg24
(g2
(L456L
tp1610
tp1611
sg27
g28
((lp1612
tp1613
Rp1614
sbsg32
S"saa m'bayo"
p1615
sg34
g798
sg165
S"yombouna.saa m'bayo@gmail.com"
p1616
sg167
L2L
sg73
L456L
sbag1
(g2
g3
Ntp1617
Rp1618
(dp1619
g7
S'akourbi'
p1620
sg9
g1
(g10
g3
Ntp1621
Rp1622
(dp1623
g14
g2
sg15
(dp1624
sg17
g1618
sg18
g1
(g19
g3
Ntp1625
Rp1626
(dp1627
g23
g2
sbsg24
(g2
(L457L
tp1628
tp1629
sg27
g28
((lp1630
tp1631
Rp1632
sbsg32
S'samira'
p1633
sg34
g1
(g35
g3
Ntp1634
Rp1635
(dp1636
g7
S'3i'
p1637
sg9
g1
(g10
g3
Ntp1638
Rp1639
(dp1640
g14
g35
sg15
(dp1641
sg17
g1635
sg18
g1
(g19
g3
Ntp1642
Rp1643
(dp1644
g23
g35
sbsg24
(g35
(L3L
tp1645
tp1646
sg27
g28
((lp1647
tp1648
Rp1649
sbsg52
g1
(g53
g54
(lp1650
g75
ag91
ag863
ag879
ag1
(g56
g3
Ntp1651
Rp1652
(dp1653
g7
S'IDM'
p1654
sg9
g1
(g10
g3
Ntp1655
Rp1656
(dp1657
g14
g56
sg15
(dp1658
sg17
g1652
sg18
g1
(g19
g3
Ntp1659
Rp1660
(dp1661
g23
g56
sbsg24
(g56
(L14L
tp1662
tp1663
sg27
g28
((lp1664
tp1665
Rp1666
sbsg73
L14L
sbag1
(g56
g3
Ntp1667
Rp1668
(dp1669
g7
S'algorithmiques'
p1670
sg9
g1
(g10
g3
Ntp1671
Rp1672
(dp1673
g14
g56
sg15
(dp1674
sg17
g1668
sg18
g1
(g19
g3
Ntp1675
Rp1676
(dp1677
g23
g56
sbsg24
(g56
(L15L
tp1678
tp1679
sg27
g28
((lp1680
tp1681
Rp1682
sbsg73
L15L
sbag1
(g56
g3
Ntp1683
Rp1684
(dp1685
g7
S'cryptographie'
p1686
sg9
g1
(g10
g3
Ntp1687
Rp1688
(dp1689
g14
g56
sg15
(dp1690
sg17
g1684
sg18
g1
(g19
g3
Ntp1691
Rp1692
(dp1693
g23
g56
sbsg24
(g56
(L16L
tp1694
tp1695
sg27
g28
((lp1696
tp1697
Rp1698
sbsg73
L16L
sbatp1699
Rp1700
(dp1701
g157
g1
(g158
g3
Ntp1702
Rp1703
(dp1704
g162
g1700
sg163
g1639
sg164
g52
sbsbsg73
L3L
sbsg165
S'akourbi.samira@gmail.com'
p1705
sg167
L3L
sg73
L457L
sbag1
(g2
g3
Ntp1706
Rp1707
(dp1708
g7
S'bakhout'
p1709
sg9
g1
(g10
g3
Ntp1710
Rp1711
(dp1712
g14
g2
sg15
(dp1713
sg17
g1707
sg18
g1
(g19
g3
Ntp1714
Rp1715
(dp1716
g23
g2
sbsg24
(g2
(L458L
tp1717
tp1718
sg27
g28
((lp1719
tp1720
Rp1721
sbsg32
S'imane'
p1722
sg34
g1635
sg165
S'bakhout.imane@gmail.com'
p1723
sg167
L3L
sg73
L458L
sbag1
(g2
g3
Ntp1724
Rp1725
(dp1726
g7
S'bouraba'
p1727
sg9
g1
(g10
g3
Ntp1728
Rp1729
(dp1730
g14
g2
sg15
(dp1731
sg17
g1725
sg18
g1
(g19
g3
Ntp1732
Rp1733
(dp1734
g23
g2
sbsg24
(g2
(L459L
tp1735
tp1736
sg27
g28
((lp1737
tp1738
Rp1739
sbsg32
S'hamza'
p1740
sg34
g1635
sg165
S'bouraba.hamza@gmail.com'
p1741
sg167
L3L
sg73
L459L
sbag1
(g2
g3
Ntp1742
Rp1743
(dp1744
g7
S'bourra'
p1745
sg9
g1
(g10
g3
Ntp1746
Rp1747
(dp1748
g14
g2
sg15
(dp1749
sg17
g1743
sg18
g1
(g19
g3
Ntp1750
Rp1751
(dp1752
g23
g2
sbsg24
(g2
(L460L
tp1753
tp1754
sg27
g28
((lp1755
tp1756
Rp1757
sbsg32
S'abdessadek'
p1758
sg34
g1635
sg165
S'bourra.abdessadek@gmail.com'
p1759
sg167
L3L
sg73
L460L
sbag1
(g2
g3
Ntp1760
Rp1761
(dp1762
g7
S'boutlaeb houssaini joutei'
p1763
sg9
g1
(g10
g3
Ntp1764
Rp1765
(dp1766
g14
g2
sg15
(dp1767
sg17
g1761
sg18
g1
(g19
g3
Ntp1768
Rp1769
(dp1770
g23
g2
sbsg24
(g2
(L461L
tp1771
tp1772
sg27
g28
((lp1773
tp1774
Rp1775
sbsg32
S'ismail'
p1776
sg34
g1635
sg165
S'boutlaeb houssaini joutei.ismail@gmail.com'
p1777
sg167
L3L
sg73
L461L
sbag1
(g2
g3
Ntp1778
Rp1779
(dp1780
g7
S'chabih'
p1781
sg9
g1
(g10
g3
Ntp1782
Rp1783
(dp1784
g14
g2
sg15
(dp1785
sg17
g1779
sg18
g1
(g19
g3
Ntp1786
Rp1787
(dp1788
g23
g2
sbsg24
(g2
(L462L
tp1789
tp1790
sg27
g28
((lp1791
tp1792
Rp1793
sbsg32
S'oussama'
p1794
sg34
g1635
sg165
S'chabih.oussama@gmail.com'
p1795
sg167
L3L
sg73
L462L
sbag1
(g2
g3
Ntp1796
Rp1797
(dp1798
g7
S'choukri'
p1799
sg9
g1
(g10
g3
Ntp1800
Rp1801
(dp1802
g14
g2
sg15
(dp1803
sg17
g1797
sg18
g1
(g19
g3
Ntp1804
Rp1805
(dp1806
g23
g2
sbsg24
(g2
(L463L
tp1807
tp1808
sg27
g28
((lp1809
tp1810
Rp1811
sbsg32
S'ihssane'
p1812
sg34
g1635
sg165
S'choukri.ihssane@gmail.com'
p1813
sg167
L3L
sg73
L463L
sbag1
(g2
g3
Ntp1814
Rp1815
(dp1816
g7
S'doulyazal'
p1817
sg9
g1
(g10
g3
Ntp1818
Rp1819
(dp1820
g14
g2
sg15
(dp1821
sg17
g1815
sg18
g1
(g19
g3
Ntp1822
Rp1823
(dp1824
g23
g2
sbsg24
(g2
(L464L
tp1825
tp1826
sg27
g28
((lp1827
tp1828
Rp1829
sbsg32
S'widad'
p1830
sg34
g1635
sg165
S'doulyazal.widad@gmail.com'
p1831
sg167
L3L
sg73
L464L
sbag1
(g2
g3
Ntp1832
Rp1833
(dp1834
g7
S'draam'
p1835
sg9
g1
(g10
g3
Ntp1836
Rp1837
(dp1838
g14
g2
sg15
(dp1839
sg17
g1833
sg18
g1
(g19
g3
Ntp1840
Rp1841
(dp1842
g23
g2
sbsg24
(g2
(L465L
tp1843
tp1844
sg27
g28
((lp1845
tp1846
Rp1847
sbsg32
S'salma'
p1848
sg34
g1635
sg165
S'draam.salma@gmail.com'
p1849
sg167
L3L
sg73
L465L
sbag1
(g2
g3
Ntp1850
Rp1851
(dp1852
g7
S'el alami'
p1853
sg9
g1
(g10
g3
Ntp1854
Rp1855
(dp1856
g14
g2
sg15
(dp1857
sg17
g1851
sg18
g1
(g19
g3
Ntp1858
Rp1859
(dp1860
g23
g2
sbsg24
(g2
(L466L
tp1861
tp1862
sg27
g28
((lp1863
tp1864
Rp1865
sbsg32
S'omar'
p1866
sg34
g1635
sg165
S'el alami.omar@gmail.com'
p1867
sg167
L3L
sg73
L466L
sbag1
(g2
g3
Ntp1868
Rp1869
(dp1870
g7
S'el warrak'
p1871
sg9
g1
(g10
g3
Ntp1872
Rp1873
(dp1874
g14
g2
sg15
(dp1875
sg17
g1869
sg18
g1
(g19
g3
Ntp1876
Rp1877
(dp1878
g23
g2
sbsg24
(g2
(L467L
tp1879
tp1880
sg27
g28
((lp1881
tp1882
Rp1883
sbsg32
S'othmane'
p1884
sg34
g1635
sg165
S'el warrak.othmane@gmail.com'
p1885
sg167
L3L
sg73
L467L
sbag1
(g2
g3
Ntp1886
Rp1887
(dp1888
g7
S'elaallouli'
p1889
sg9
g1
(g10
g3
Ntp1890
Rp1891
(dp1892
g14
g2
sg15
(dp1893
sg17
g1887
sg18
g1
(g19
g3
Ntp1894
Rp1895
(dp1896
g23
g2
sbsg24
(g2
(L468L
tp1897
tp1898
sg27
g28
((lp1899
tp1900
Rp1901
sbsg32
S'mahmoud'
p1902
sg34
g1635
sg165
S'elaallouli.mahmoud@gmail.com'
p1903
sg167
L3L
sg73
L468L
sbag1
(g2
g3
Ntp1904
Rp1905
(dp1906
g7
S'elbahiji'
p1907
sg9
g1
(g10
g3
Ntp1908
Rp1909
(dp1910
g14
g2
sg15
(dp1911
sg17
g1905
sg18
g1
(g19
g3
Ntp1912
Rp1913
(dp1914
g23
g2
sbsg24
(g2
(L469L
tp1915
tp1916
sg27
g28
((lp1917
tp1918
Rp1919
sbsg32
S'salma'
p1920
sg34
g1635
sg165
S'elbahiji.salma@gmail.com'
p1921
sg167
L3L
sg73
L469L
sbag1
(g2
g3
Ntp1922
Rp1923
(dp1924
g7
S'elbrigui'
p1925
sg9
g1
(g10
g3
Ntp1926
Rp1927
(dp1928
g14
g2
sg15
(dp1929
sg17
g1923
sg18
g1
(g19
g3
Ntp1930
Rp1931
(dp1932
g23
g2
sbsg24
(g2
(L470L
tp1933
tp1934
sg27
g28
((lp1935
tp1936
Rp1937
sbsg32
S'hassan'
p1938
sg34
g1635
sg165
S'elbrigui.hassan@gmail.com'
p1939
sg167
L3L
sg73
L470L
sbag1
(g2
g3
Ntp1940
Rp1941
(dp1942
g7
S'elkamili'
p1943
sg9
g1
(g10
g3
Ntp1944
Rp1945
(dp1946
g14
g2
sg15
(dp1947
sg17
g1941
sg18
g1
(g19
g3
Ntp1948
Rp1949
(dp1950
g23
g2
sbsg24
(g2
(L471L
tp1951
tp1952
sg27
g28
((lp1953
tp1954
Rp1955
sbsg32
S'sanaa'
p1956
sg34
g1635
sg165
S'elkamili.sanaa@gmail.com'
p1957
sg167
L3L
sg73
L471L
sbag1
(g2
g3
Ntp1958
Rp1959
(dp1960
g7
S'erafii'
p1961
sg9
g1
(g10
g3
Ntp1962
Rp1963
(dp1964
g14
g2
sg15
(dp1965
sg17
g1959
sg18
g1
(g19
g3
Ntp1966
Rp1967
(dp1968
g23
g2
sbsg24
(g2
(L472L
tp1969
tp1970
sg27
g28
((lp1971
tp1972
Rp1973
sbsg32
S'hasna'
p1974
sg34
g1635
sg165
S'erafii.hasna@gmail.com'
p1975
sg167
L3L
sg73
L472L
sbag1
(g2
g3
Ntp1976
Rp1977
(dp1978
g7
S'essouiri'
p1979
sg9
g1
(g10
g3
Ntp1980
Rp1981
(dp1982
g14
g2
sg15
(dp1983
sg17
g1977
sg18
g1
(g19
g3
Ntp1984
Rp1985
(dp1986
g23
g2
sbsg24
(g2
(L473L
tp1987
tp1988
sg27
g28
((lp1989
tp1990
Rp1991
sbsg32
S'ayoub'
p1992
sg34
g1635
sg165
S'essouiri.ayoub@gmail.com'
p1993
sg167
L3L
sg73
L473L
sbag1
(g2
g3
Ntp1994
Rp1995
(dp1996
g7
S'hammioui'
p1997
sg9
g1
(g10
g3
Ntp1998
Rp1999
(dp2000
g14
g2
sg15
(dp2001
sg17
g1995
sg18
g1
(g19
g3
Ntp2002
Rp2003
(dp2004
g23
g2
sbsg24
(g2
(L474L
tp2005
tp2006
sg27
g28
((lp2007
tp2008
Rp2009
sbsg32
S'idriss'
p2010
sg34
g1635
sg165
S'hammioui.idriss@gmail.com'
p2011
sg167
L3L
sg73
L474L
sbag1
(g2
g3
Ntp2012
Rp2013
(dp2014
g7
S'hankafi'
p2015
sg9
g1
(g10
g3
Ntp2016
Rp2017
(dp2018
g14
g2
sg15
(dp2019
sg17
g2013
sg18
g1
(g19
g3
Ntp2020
Rp2021
(dp2022
g23
g2
sbsg24
(g2
(L475L
tp2023
tp2024
sg27
g28
((lp2025
tp2026
Rp2027
sbsg32
S'abdelalim'
p2028
sg34
g1635
sg165
S'hankafi.abdelalim@gmail.com'
p2029
sg167
L3L
sg73
L475L
sbag1
(g2
g3
Ntp2030
Rp2031
(dp2032
g7
S'iraqi'
p2033
sg9
g1
(g10
g3
Ntp2034
Rp2035
(dp2036
g14
g2
sg15
(dp2037
sg17
g2031
sg18
g1
(g19
g3
Ntp2038
Rp2039
(dp2040
g23
g2
sbsg24
(g2
(L476L
tp2041
tp2042
sg27
g28
((lp2043
tp2044
Rp2045
sbsg32
S'camelia'
p2046
sg34
g1635
sg165
S'iraqi.camelia@gmail.com'
p2047
sg167
L3L
sg73
L476L
sbag1
(g2
g3
Ntp2048
Rp2049
(dp2050
g7
S'kissami'
p2051
sg9
g1
(g10
g3
Ntp2052
Rp2053
(dp2054
g14
g2
sg15
(dp2055
sg17
g2049
sg18
g1
(g19
g3
Ntp2056
Rp2057
(dp2058
g23
g2
sbsg24
(g2
(L477L
tp2059
tp2060
sg27
g28
((lp2061
tp2062
Rp2063
sbsg32
S'rim'
p2064
sg34
g1635
sg165
S'kissami.rim@gmail.com'
p2065
sg167
L3L
sg73
L477L
sbag1
(g2
g3
Ntp2066
Rp2067
(dp2068
g7
S'lafhili'
p2069
sg9
g1
(g10
g3
Ntp2070
Rp2071
(dp2072
g14
g2
sg15
(dp2073
sg17
g2067
sg18
g1
(g19
g3
Ntp2074
Rp2075
(dp2076
g23
g2
sbsg24
(g2
(L478L
tp2077
tp2078
sg27
g28
((lp2079
tp2080
Rp2081
sbsg32
S'fadwa'
p2082
sg34
g1635
sg165
S'lafhili.fadwa@gmail.com'
p2083
sg167
L3L
sg73
L478L
sbag1
(g2
g3
Ntp2084
Rp2085
(dp2086
g7
S'mahi'
p2087
sg9
g1
(g10
g3
Ntp2088
Rp2089
(dp2090
g14
g2
sg15
(dp2091
sg17
g2085
sg18
g1
(g19
g3
Ntp2092
Rp2093
(dp2094
g23
g2
sbsg24
(g2
(L479L
tp2095
tp2096
sg27
g28
((lp2097
tp2098
Rp2099
sbsg32
S'zineb'
p2100
sg34
g1635
sg165
S'mahi.zineb@gmail.com'
p2101
sg167
L3L
sg73
L479L
sbag1
(g2
g3
Ntp2102
Rp2103
(dp2104
g7
S'masrour'
p2105
sg9
g1
(g10
g3
Ntp2106
Rp2107
(dp2108
g14
g2
sg15
(dp2109
sg17
g2103
sg18
g1
(g19
g3
Ntp2110
Rp2111
(dp2112
g23
g2
sbsg24
(g2
(L480L
tp2113
tp2114
sg27
g28
((lp2115
tp2116
Rp2117
sbsg32
S'kawtar'
p2118
sg34
g1635
sg165
S'masrour.kawtar@gmail.com'
p2119
sg167
L3L
sg73
L480L
sbag1
(g2
g3
Ntp2120
Rp2121
(dp2122
g7
S'nadifi'
p2123
sg9
g1
(g10
g3
Ntp2124
Rp2125
(dp2126
g14
g2
sg15
(dp2127
sg17
g2121
sg18
g1
(g19
g3
Ntp2128
Rp2129
(dp2130
g23
g2
sbsg24
(g2
(L481L
tp2131
tp2132
sg27
g28
((lp2133
tp2134
Rp2135
sbsg32
S'hassnae'
p2136
sg34
g1635
sg165
S'nadifi.hassnae@gmail.com'
p2137
sg167
L3L
sg73
L481L
sbag1
(g2
g3
Ntp2138
Rp2139
(dp2140
g7
S'ochfy'
p2141
sg9
g1
(g10
g3
Ntp2142
Rp2143
(dp2144
g14
g2
sg15
(dp2145
sg17
g2139
sg18
g1
(g19
g3
Ntp2146
Rp2147
(dp2148
g23
g2
sbsg24
(g2
(L482L
tp2149
tp2150
sg27
g28
((lp2151
tp2152
Rp2153
sbsg32
S'jihane'
p2154
sg34
g1635
sg165
S'ochfy.jihane@gmail.com'
p2155
sg167
L3L
sg73
L482L
sbag1
(g2
g3
Ntp2156
Rp2157
(dp2158
g7
S'ouzaani'
p2159
sg9
g1
(g10
g3
Ntp2160
Rp2161
(dp2162
g14
g2
sg15
(dp2163
sg17
g2157
sg18
g1
(g19
g3
Ntp2164
Rp2165
(dp2166
g23
g2
sbsg24
(g2
(L483L
tp2167
tp2168
sg27
g28
((lp2169
tp2170
Rp2171
sbsg32
S'omar'
p2172
sg34
g1635
sg165
S'ouzaani.omar@gmail.com'
p2173
sg167
L3L
sg73
L483L
sbag1
(g2
g3
Ntp2174
Rp2175
(dp2176
g7
S'wahabi'
p2177
sg9
g1
(g10
g3
Ntp2178
Rp2179
(dp2180
g14
g2
sg15
(dp2181
sg17
g2175
sg18
g1
(g19
g3
Ntp2182
Rp2183
(dp2184
g23
g2
sbsg24
(g2
(L484L
tp2185
tp2186
sg27
g28
((lp2187
tp2188
Rp2189
sbsg32
S'hind'
p2190
sg34
g1635
sg165
S'wahabi.hind@gmail.com'
p2191
sg167
L3L
sg73
L484L
sbag1
(g2
g3
Ntp2192
Rp2193
(dp2194
g7
S'yousri'
p2195
sg9
g1
(g10
g3
Ntp2196
Rp2197
(dp2198
g14
g2
sg15
(dp2199
sg17
g2193
sg18
g1
(g19
g3
Ntp2200
Rp2201
(dp2202
g23
g2
sbsg24
(g2
(L485L
tp2203
tp2204
sg27
g28
((lp2205
tp2206
Rp2207
sbsg32
S'sara'
p2208
sg34
g1635
sg165
S'yousri.sara@gmail.com'
p2209
sg167
L3L
sg73
L485L
sba.