(lp0
ccopy_reg
_reconstructor
p1
(cclasses
Filiere
p2
c__builtin__
object
p3
Ntp4
Rp5
(dp6
S'Nom'
p7
S'bd2c'
p8
sS'_sa_instance_state'
p9
g1
(csqlalchemy.orm.state
InstanceState
p10
g3
Ntp11
Rp12
(dp13
S'class_'
p14
g2
sS'committed_state'
p15
(dp16
sS'instance'
p17
g5
sS'manager'
p18
g1
(csqlalchemy.orm.instrumentation
_SerializeManager
p19
g3
Ntp20
Rp21
(dp22
S'class_'
p23
g2
sbsS'key'
p24
(g2
(L1L
tp25
tp26
sS'expired_attributes'
p27
c__builtin__
set
p28
((lp29
tp30
Rp31
sS'expired'
p32
I00
sbsS'modules'
p33
g1
(csqlalchemy.orm.collections
InstrumentedList
p34
c__builtin__
list
p35
(lp36
g1
(cclasses
Module
p37
g3
Ntp38
Rp39
(dp40
g7
S'Anglais'
p41
sg9
g1
(g10
g3
Ntp42
Rp43
(dp44
g14
g37
sg15
(dp45
sg17
g39
sg18
g1
(g19
g3
Ntp46
Rp47
(dp48
g23
g37
sbsg24
(g37
(L1L
tp49
tp50
sg27
g28
((lp51
tp52
Rp53
sbsS'ID'
p54
L1L
sbag1
(g37
g3
Ntp55
Rp56
(dp57
g7
S'Web Semantique'
p58
sg9
g1
(g10
g3
Ntp59
Rp60
(dp61
g14
g37
sg15
(dp62
sg17
g56
sg18
g1
(g19
g3
Ntp63
Rp64
(dp65
g23
g37
sbsg24
(g37
(L2L
tp66
tp67
sg27
g28
((lp68
tp69
Rp70
sbsg54
L2L
sbag1
(g37
g3
Ntp71
Rp72
(dp73
g7
S'Bases de Donnees Avancees'
p74
sg9
g1
(g10
g3
Ntp75
Rp76
(dp77
g14
g37
sg15
(dp78
sg17
g72
sg18
g1
(g19
g3
Ntp79
Rp80
(dp81
g23
g37
sbsg24
(g37
(L3L
tp82
tp83
sg27
g28
((lp84
tp85
Rp86
sbsg54
L3L
sbag1
(g37
g3
Ntp87
Rp88
(dp89
g7
S'Intelligence Artificielle'
p90
sg9
g1
(g10
g3
Ntp91
Rp92
(dp93
g14
g37
sg15
(dp94
sg17
g88
sg18
g1
(g19
g3
Ntp95
Rp96
(dp97
g23
g37
sbsg24
(g37
(L4L
tp98
tp99
sg27
g28
((lp100
tp101
Rp102
sbsg54
L4L
sbag1
(g37
g3
Ntp103
Rp104
(dp105
g7
S'Statistique Inferencielle'
p106
sg9
g1
(g10
g3
Ntp107
Rp108
(dp109
g14
g37
sg15
(dp110
sg17
g104
sg18
g1
(g19
g3
Ntp111
Rp112
(dp113
g23
g37
sbsg24
(g37
(L5L
tp114
tp115
sg27
g28
((lp116
tp117
Rp118
sbsg54
L5L
sbag1
(g37
g3
Ntp119
Rp120
(dp121
g7
S'Programmation Python'
p122
sg9
g1
(g10
g3
Ntp123
Rp124
(dp125
g14
g37
sg15
(dp126
sg17
g120
sg18
g1
(g19
g3
Ntp127
Rp128
(dp129
g23
g37
sbsg24
(g37
(L6L
tp130
tp131
sg27
g28
((lp132
tp133
Rp134
sbsg54
L6L
sbatp135
Rp136
(dp137
S'_sa_adapter'
p138
g1
(csqlalchemy.orm.collections
CollectionAdapter
p139
g3
Ntp140
Rp141
(dp142
S'data'
p143
g136
sS'owner_state'
p144
g12
sS'key'
p145
g33
sbsbsg54
L1L
sbag1
(g2
g3
Ntp146
Rp147
(dp148
g7
S'iostl'
p149
sg9
g1
(g10
g3
Ntp150
Rp151
(dp152
g14
g2
sg15
(dp153
sg17
g147
sg18
g1
(g19
g3
Ntp154
Rp155
(dp156
g23
g2
sbsg24
(g2
(L2L
tp157
tp158
sg27
g28
((lp159
tp160
Rp161
sg32
I00
sbsg33
g1
(g34
g35
(lp162
g104
ag120
ag1
(g37
g3
Ntp163
Rp164
(dp165
g7
S'xml'
p166
sg9
g1
(g10
g3
Ntp167
Rp168
(dp169
g14
g37
sg15
(dp170
sg17
g164
sg18
g1
(g19
g3
Ntp171
Rp172
(dp173
g23
g37
sbsg24
(g37
(L7L
tp174
tp175
sg27
g28
((lp176
tp177
Rp178
sbsg54
L7L
sbag1
(g37
g3
Ntp179
Rp180
(dp181
g7
S'Programmation lineaire avancee'
p182
sg9
g1
(g10
g3
Ntp183
Rp184
(dp185
g14
g37
sg15
(dp186
sg17
g180
sg18
g1
(g19
g3
Ntp187
Rp188
(dp189
g23
g37
sbsg24
(g37
(L8L
tp190
tp191
sg27
g28
((lp192
tp193
Rp194
sbsg54
L8L
sbag1
(g37
g3
Ntp195
Rp196
(dp197
g7
S'Theorie des graphes'
p198
sg9
g1
(g10
g3
Ntp199
Rp200
(dp201
g14
g37
sg15
(dp202
sg17
g196
sg18
g1
(g19
g3
Ntp203
Rp204
(dp205
g23
g37
sbsg24
(g37
(L9L
tp206
tp207
sg27
g28
((lp208
tp209
Rp210
sbsg54
L9L
sbag1
(g37
g3
Ntp211
Rp212
(dp213
g7
S'JEE'
p214
sg9
g1
(g10
g3
Ntp215
Rp216
(dp217
g14
g37
sg15
(dp218
sg17
g212
sg18
g1
(g19
g3
Ntp219
Rp220
(dp221
g23
g37
sbsg24
(g37
(L10L
tp222
tp223
sg27
g28
((lp224
tp225
Rp226
sbsg54
L10L
sbag1
(g37
g3
Ntp227
Rp228
(dp229
g7
S'ASP.net'
p230
sg9
g1
(g10
g3
Ntp231
Rp232
(dp233
g14
g37
sg15
(dp234
sg17
g228
sg18
g1
(g19
g3
Ntp235
Rp236
(dp237
g23
g37
sbsg24
(g37
(L11L
tp238
tp239
sg27
g28
((lp240
tp241
Rp242
sbsg54
L11L
sbag1
(g37
g3
Ntp243
Rp244
(dp245
g7
S'buisness intelligence'
p246
sg9
g1
(g10
g3
Ntp247
Rp248
(dp249
g14
g37
sg15
(dp250
sg17
g244
sg18
g1
(g19
g3
Ntp251
Rp252
(dp253
g23
g37
sbsg24
(g37
(L12L
tp254
tp255
sg27
g28
((lp256
tp257
Rp258
sbsg54
L12L
sbag1
(g37
g3
Ntp259
Rp260
(dp261
g7
S'communication'
p262
sg9
g1
(g10
g3
Ntp263
Rp264
(dp265
g14
g37
sg15
(dp266
sg17
g260
sg18
g1
(g19
g3
Ntp267
Rp268
(dp269
g23
g37
sbsg24
(g37
(L13L
tp270
tp271
sg27
g28
((lp272
tp273
Rp274
sbsg54
L13L
sbatp275
Rp276
(dp277
g138
g1
(g139
g3
Ntp278
Rp279
(dp280
g143
g276
sg144
g151
sg145
g33
sbsbsg54
L2L
sbag1
(g2
g3
Ntp281
Rp282
(dp283
g7
S'3i'
p284
sg9
g1
(g10
g3
Ntp285
Rp286
(dp287
g14
g2
sg15
(dp288
sg17
g282
sg18
g1
(g19
g3
Ntp289
Rp290
(dp291
g23
g2
sbsg24
(g2
(L3L
tp292
tp293
sg27
g28
((lp294
tp295
Rp296
sg32
I00
sbsg33
g1
(g34
g35
(lp297
g56
ag72
ag212
ag228
ag1
(g37
g3
Ntp298
Rp299
(dp300
g7
S'IDM'
p301
sg9
g1
(g10
g3
Ntp302
Rp303
(dp304
g14
g37
sg15
(dp305
sg17
g299
sg18
g1
(g19
g3
Ntp306
Rp307
(dp308
g23
g37
sbsg24
(g37
(L14L
tp309
tp310
sg27
g28
((lp311
tp312
Rp313
sbsg54
L14L
sbag1
(g37
g3
Ntp314
Rp315
(dp316
g7
S'algorithmiques'
p317
sg9
g1
(g10
g3
Ntp318
Rp319
(dp320
g14
g37
sg15
(dp321
sg17
g315
sg18
g1
(g19
g3
Ntp322
Rp323
(dp324
g23
g37
sbsg24
(g37
(L15L
tp325
tp326
sg27
g28
((lp327
tp328
Rp329
sbsg54
L15L
sbag1
(g37
g3
Ntp330
Rp331
(dp332
g7
S'cryptographie'
p333
sg9
g1
(g10
g3
Ntp334
Rp335
(dp336
g14
g37
sg15
(dp337
sg17
g331
sg18
g1
(g19
g3
Ntp338
Rp339
(dp340
g23
g37
sbsg24
(g37
(L16L
tp341
tp342
sg27
g28
((lp343
tp344
Rp345
sbsg54
L16L
sbatp346
Rp347
(dp348
g138
g1
(g139
g3
Ntp349
Rp350
(dp351
g143
g347
sg144
g286
sg145
g33
sbsbsg54
L3L
sba.