(lp0
ccopy_reg
_reconstructor
p1
(cclasses
Module
p2
c__builtin__
object
p3
Ntp4
Rp5
(dp6
S'Nom'
p7
S'Anglais'
p8
sS'_sa_instance_state'
p9
g1
(csqlalchemy.orm.state
InstanceState
p10
g3
Ntp11
Rp12
(dp13
S'class_'
p14
g2
sS'committed_state'
p15
(dp16
sS'instance'
p17
g5
sS'manager'
p18
g1
(csqlalchemy.orm.instrumentation
_SerializeManager
p19
g3
Ntp20
Rp21
(dp22
S'class_'
p23
g2
sbsS'key'
p24
(g2
(L1L
tp25
tp26
sS'expired_attributes'
p27
c__builtin__
set
p28
((lp29
tp30
Rp31
sbsS'ID'
p32
L1L
sbag1
(g2
g3
Ntp33
Rp34
(dp35
g7
S'Web Semantique'
p36
sg9
g1
(g10
g3
Ntp37
Rp38
(dp39
g14
g2
sg15
(dp40
sg17
g34
sg18
g1
(g19
g3
Ntp41
Rp42
(dp43
g23
g2
sbsg24
(g2
(L2L
tp44
tp45
sg27
g28
((lp46
tp47
Rp48
sbsg32
L2L
sbag1
(g2
g3
Ntp49
Rp50
(dp51
g7
S'Bases de Donnees Avancees'
p52
sg9
g1
(g10
g3
Ntp53
Rp54
(dp55
g14
g2
sg15
(dp56
sg17
g50
sg18
g1
(g19
g3
Ntp57
Rp58
(dp59
g23
g2
sbsg24
(g2
(L3L
tp60
tp61
sg27
g28
((lp62
tp63
Rp64
sbsg32
L3L
sbag1
(g2
g3
Ntp65
Rp66
(dp67
g7
S'Intelligence Artificielle'
p68
sg9
g1
(g10
g3
Ntp69
Rp70
(dp71
g14
g2
sg15
(dp72
sg17
g66
sg18
g1
(g19
g3
Ntp73
Rp74
(dp75
g23
g2
sbsg24
(g2
(L4L
tp76
tp77
sg27
g28
((lp78
tp79
Rp80
sbsg32
L4L
sbag1
(g2
g3
Ntp81
Rp82
(dp83
g7
S'Statistique Inferencielle'
p84
sg9
g1
(g10
g3
Ntp85
Rp86
(dp87
g14
g2
sg15
(dp88
sg17
g82
sg18
g1
(g19
g3
Ntp89
Rp90
(dp91
g23
g2
sbsg24
(g2
(L5L
tp92
tp93
sg27
g28
((lp94
tp95
Rp96
sbsg32
L5L
sbag1
(g2
g3
Ntp97
Rp98
(dp99
g7
S'Programmation Python'
p100
sg9
g1
(g10
g3
Ntp101
Rp102
(dp103
g14
g2
sg15
(dp104
sg17
g98
sg18
g1
(g19
g3
Ntp105
Rp106
(dp107
g23
g2
sbsg24
(g2
(L6L
tp108
tp109
sg27
g28
((lp110
tp111
Rp112
sbsg32
L6L
sbag1
(g2
g3
Ntp113
Rp114
(dp115
g7
S'xml'
p116
sg9
g1
(g10
g3
Ntp117
Rp118
(dp119
g14
g2
sg15
(dp120
sg17
g114
sg18
g1
(g19
g3
Ntp121
Rp122
(dp123
g23
g2
sbsg24
(g2
(L7L
tp124
tp125
sg27
g28
((lp126
tp127
Rp128
sbsg32
L7L
sbag1
(g2
g3
Ntp129
Rp130
(dp131
g7
S'Programmation lineaire avancee'
p132
sg9
g1
(g10
g3
Ntp133
Rp134
(dp135
g14
g2
sg15
(dp136
sg17
g130
sg18
g1
(g19
g3
Ntp137
Rp138
(dp139
g23
g2
sbsg24
(g2
(L8L
tp140
tp141
sg27
g28
((lp142
tp143
Rp144
sbsg32
L8L
sbag1
(g2
g3
Ntp145
Rp146
(dp147
g7
S'Theorie des graphes'
p148
sg9
g1
(g10
g3
Ntp149
Rp150
(dp151
g14
g2
sg15
(dp152
sg17
g146
sg18
g1
(g19
g3
Ntp153
Rp154
(dp155
g23
g2
sbsg24
(g2
(L9L
tp156
tp157
sg27
g28
((lp158
tp159
Rp160
sbsg32
L9L
sbag1
(g2
g3
Ntp161
Rp162
(dp163
g7
S'JEE'
p164
sg9
g1
(g10
g3
Ntp165
Rp166
(dp167
g14
g2
sg15
(dp168
sg17
g162
sg18
g1
(g19
g3
Ntp169
Rp170
(dp171
g23
g2
sbsg24
(g2
(L10L
tp172
tp173
sg27
g28
((lp174
tp175
Rp176
sbsg32
L10L
sbag1
(g2
g3
Ntp177
Rp178
(dp179
g7
S'ASP.net'
p180
sg9
g1
(g10
g3
Ntp181
Rp182
(dp183
g14
g2
sg15
(dp184
sg17
g178
sg18
g1
(g19
g3
Ntp185
Rp186
(dp187
g23
g2
sbsg24
(g2
(L11L
tp188
tp189
sg27
g28
((lp190
tp191
Rp192
sbsg32
L11L
sbag1
(g2
g3
Ntp193
Rp194
(dp195
g7
S'buisness intelligence'
p196
sg9
g1
(g10
g3
Ntp197
Rp198
(dp199
g14
g2
sg15
(dp200
sg17
g194
sg18
g1
(g19
g3
Ntp201
Rp202
(dp203
g23
g2
sbsg24
(g2
(L12L
tp204
tp205
sg27
g28
((lp206
tp207
Rp208
sbsg32
L12L
sbag1
(g2
g3
Ntp209
Rp210
(dp211
g7
S'communication'
p212
sg9
g1
(g10
g3
Ntp213
Rp214
(dp215
g14
g2
sg15
(dp216
sg17
g210
sg18
g1
(g19
g3
Ntp217
Rp218
(dp219
g23
g2
sbsg24
(g2
(L13L
tp220
tp221
sg27
g28
((lp222
tp223
Rp224
sbsg32
L13L
sbag1
(g2
g3
Ntp225
Rp226
(dp227
g7
S'IDM'
p228
sg9
g1
(g10
g3
Ntp229
Rp230
(dp231
g14
g2
sg15
(dp232
sg17
g226
sg18
g1
(g19
g3
Ntp233
Rp234
(dp235
g23
g2
sbsg24
(g2
(L14L
tp236
tp237
sg27
g28
((lp238
tp239
Rp240
sbsg32
L14L
sbag1
(g2
g3
Ntp241
Rp242
(dp243
g7
S'algorithmiques'
p244
sg9
g1
(g10
g3
Ntp245
Rp246
(dp247
g14
g2
sg15
(dp248
sg17
g242
sg18
g1
(g19
g3
Ntp249
Rp250
(dp251
g23
g2
sbsg24
(g2
(L15L
tp252
tp253
sg27
g28
((lp254
tp255
Rp256
sbsg32
L15L
sbag1
(g2
g3
Ntp257
Rp258
(dp259
g7
S'cryptographie'
p260
sg9
g1
(g10
g3
Ntp261
Rp262
(dp263
g14
g2
sg15
(dp264
sg17
g258
sg18
g1
(g19
g3
Ntp265
Rp266
(dp267
g23
g2
sbsg24
(g2
(L16L
tp268
tp269
sg27
g28
((lp270
tp271
Rp272
sbsg32
L16L
sba.